                                      1 ;--------------------------------------------------------
                                      2 ; File Created by SDCC : free open source ANSI-C Compiler
                                      3 ; Version 4.1.0 #12072 (Linux)
                                      4 ;--------------------------------------------------------
                                      5 	.module LCD16X2
                                      6 	.optsdcc -mmcs51 --model-small
                                      7 	
                                      8 ;--------------------------------------------------------
                                      9 ; Public variables in this module
                                     10 ;--------------------------------------------------------
                                     11 	.globl _delay_ms
                                     12 	.globl _GPIO_PORT_Write
                                     13 	.globl _GPIO_Write
                                     14 	.globl _LCD_Write_Str_PARM_2
                                     15 	.globl _Send_Data_PARM_2
                                     16 	.globl _Send_Command_PARM_2
                                     17 	.globl _Send_Command
                                     18 	.globl _Send_Data
                                     19 	.globl _LCD_Write_Str
                                     20 	.globl _LCD_Init
                                     21 ;--------------------------------------------------------
                                     22 ; special function registers
                                     23 ;--------------------------------------------------------
                                     24 	.area RSEG    (ABS,DATA)
      000000                         25 	.org 0x0000
                                     26 ;--------------------------------------------------------
                                     27 ; special function bits
                                     28 ;--------------------------------------------------------
                                     29 	.area RSEG    (ABS,DATA)
      000000                         30 	.org 0x0000
                                     31 ;--------------------------------------------------------
                                     32 ; overlayable register banks
                                     33 ;--------------------------------------------------------
                                     34 	.area REG_BANK_0	(REL,OVR,DATA)
      000000                         35 	.ds 8
                                     36 ;--------------------------------------------------------
                                     37 ; internal ram data
                                     38 ;--------------------------------------------------------
                                     39 	.area DSEG    (DATA)
      00003A                         40 _LCD_Data_io:
      00003A                         41 	.ds 3
      00003D                         42 _Send_Command_PARM_2:
      00003D                         43 	.ds 1
      00003E                         44 _Send_Command_config_65536_11:
      00003E                         45 	.ds 3
      000041                         46 _Send_Data_PARM_2:
      000041                         47 	.ds 1
      000042                         48 _Send_Data_config_65536_13:
      000042                         49 	.ds 3
      000045                         50 _LCD_Write_Str_PARM_2:
      000045                         51 	.ds 3
                                     52 ;--------------------------------------------------------
                                     53 ; overlayable items in internal ram 
                                     54 ;--------------------------------------------------------
                                     55 ;--------------------------------------------------------
                                     56 ; indirectly addressable internal ram data
                                     57 ;--------------------------------------------------------
                                     58 	.area ISEG    (DATA)
                                     59 ;--------------------------------------------------------
                                     60 ; absolute internal ram data
                                     61 ;--------------------------------------------------------
                                     62 	.area IABS    (ABS,DATA)
                                     63 	.area IABS    (ABS,DATA)
                                     64 ;--------------------------------------------------------
                                     65 ; bit data
                                     66 ;--------------------------------------------------------
                                     67 	.area BSEG    (BIT)
                                     68 ;--------------------------------------------------------
                                     69 ; paged external ram data
                                     70 ;--------------------------------------------------------
                                     71 	.area PSEG    (PAG,XDATA)
                                     72 ;--------------------------------------------------------
                                     73 ; external ram data
                                     74 ;--------------------------------------------------------
                                     75 	.area XSEG    (XDATA)
                                     76 ;--------------------------------------------------------
                                     77 ; absolute external ram data
                                     78 ;--------------------------------------------------------
                                     79 	.area XABS    (ABS,XDATA)
                                     80 ;--------------------------------------------------------
                                     81 ; external initialized ram data
                                     82 ;--------------------------------------------------------
                                     83 	.area XISEG   (XDATA)
                                     84 	.area HOME    (CODE)
                                     85 	.area GSINIT0 (CODE)
                                     86 	.area GSINIT1 (CODE)
                                     87 	.area GSINIT2 (CODE)
                                     88 	.area GSINIT3 (CODE)
                                     89 	.area GSINIT4 (CODE)
                                     90 	.area GSINIT5 (CODE)
                                     91 	.area GSINIT  (CODE)
                                     92 	.area GSFINAL (CODE)
                                     93 	.area CSEG    (CODE)
                                     94 ;--------------------------------------------------------
                                     95 ; global & static initialisations
                                     96 ;--------------------------------------------------------
                                     97 	.area HOME    (CODE)
                                     98 	.area GSINIT  (CODE)
                                     99 	.area GSFINAL (CODE)
                                    100 	.area GSINIT  (CODE)
                                    101 ;--------------------------------------------------------
                                    102 ; Home
                                    103 ;--------------------------------------------------------
                                    104 	.area HOME    (CODE)
                                    105 	.area HOME    (CODE)
                                    106 ;--------------------------------------------------------
                                    107 ; code
                                    108 ;--------------------------------------------------------
                                    109 	.area CSEG    (CODE)
                                    110 ;------------------------------------------------------------
                                    111 ;Allocation info for local variables in function 'Send_Command'
                                    112 ;------------------------------------------------------------
                                    113 ;command                   Allocated with name '_Send_Command_PARM_2'
                                    114 ;config                    Allocated with name '_Send_Command_config_65536_11'
                                    115 ;------------------------------------------------------------
                                    116 ;	../HAL/LCD16X2.c:10: void Send_Command(LCD_Config_t *config, unsigned char command){
                                    117 ;	-----------------------------------------
                                    118 ;	 function Send_Command
                                    119 ;	-----------------------------------------
      000A15                        120 _Send_Command:
                           000007   121 	ar7 = 0x07
                           000006   122 	ar6 = 0x06
                           000005   123 	ar5 = 0x05
                           000004   124 	ar4 = 0x04
                           000003   125 	ar3 = 0x03
                           000002   126 	ar2 = 0x02
                           000001   127 	ar1 = 0x01
                           000000   128 	ar0 = 0x00
      000A15 85 82 3E         [24]  129 	mov	_Send_Command_config_65536_11,dpl
      000A18 85 83 3F         [24]  130 	mov	(_Send_Command_config_65536_11 + 1),dph
      000A1B 85 F0 40         [24]  131 	mov	(_Send_Command_config_65536_11 + 2),b
                                    132 ;	../HAL/LCD16X2.c:11: LCD_Data_io.Port = config->Command_Port;
      000A1E 74 01            [12]  133 	mov	a,#0x01
      000A20 25 3E            [12]  134 	add	a,_Send_Command_config_65536_11
      000A22 FA               [12]  135 	mov	r2,a
      000A23 E4               [12]  136 	clr	a
      000A24 35 3F            [12]  137 	addc	a,(_Send_Command_config_65536_11 + 1)
      000A26 FB               [12]  138 	mov	r3,a
      000A27 AC 40            [24]  139 	mov	r4,(_Send_Command_config_65536_11 + 2)
      000A29 8A 82            [24]  140 	mov	dpl,r2
      000A2B 8B 83            [24]  141 	mov	dph,r3
      000A2D 8C F0            [24]  142 	mov	b,r4
      000A2F 12 0D 36         [24]  143 	lcall	__gptrget
      000A32 FF               [12]  144 	mov	r7,a
      000A33 8F 3A            [24]  145 	mov	_LCD_Data_io,r7
                                    146 ;	../HAL/LCD16X2.c:12: LCD_Data_io.Pin = config->RS; 
      000A35 74 03            [12]  147 	mov	a,#0x03
      000A37 25 3E            [12]  148 	add	a,_Send_Command_config_65536_11
      000A39 FD               [12]  149 	mov	r5,a
      000A3A E4               [12]  150 	clr	a
      000A3B 35 3F            [12]  151 	addc	a,(_Send_Command_config_65536_11 + 1)
      000A3D FE               [12]  152 	mov	r6,a
      000A3E AF 40            [24]  153 	mov	r7,(_Send_Command_config_65536_11 + 2)
      000A40 8D 82            [24]  154 	mov	dpl,r5
      000A42 8E 83            [24]  155 	mov	dph,r6
      000A44 8F F0            [24]  156 	mov	b,r7
      000A46 12 0D 36         [24]  157 	lcall	__gptrget
      000A49 FD               [12]  158 	mov	r5,a
      000A4A 8D 3B            [24]  159 	mov	(_LCD_Data_io + 0x0001),r5
                                    160 ;	../HAL/LCD16X2.c:13: GPIO_Write(&LCD_Data_io, GPIO_LOW);
      000A4C 75 4C 00         [24]  161 	mov	_GPIO_Write_PARM_2,#0x00
      000A4F 90 00 3A         [24]  162 	mov	dptr,#_LCD_Data_io
      000A52 75 F0 40         [24]  163 	mov	b,#0x40
      000A55 C0 04            [24]  164 	push	ar4
      000A57 C0 03            [24]  165 	push	ar3
      000A59 C0 02            [24]  166 	push	ar2
      000A5B 12 05 A1         [24]  167 	lcall	_GPIO_Write
                                    168 ;	../HAL/LCD16X2.c:14: LCD_Data_io.Pin = config->RW; 
      000A5E 74 02            [12]  169 	mov	a,#0x02
      000A60 25 3E            [12]  170 	add	a,_Send_Command_config_65536_11
      000A62 FD               [12]  171 	mov	r5,a
      000A63 E4               [12]  172 	clr	a
      000A64 35 3F            [12]  173 	addc	a,(_Send_Command_config_65536_11 + 1)
      000A66 FE               [12]  174 	mov	r6,a
      000A67 AF 40            [24]  175 	mov	r7,(_Send_Command_config_65536_11 + 2)
      000A69 8D 82            [24]  176 	mov	dpl,r5
      000A6B 8E 83            [24]  177 	mov	dph,r6
      000A6D 8F F0            [24]  178 	mov	b,r7
      000A6F 12 0D 36         [24]  179 	lcall	__gptrget
      000A72 FD               [12]  180 	mov	r5,a
      000A73 8D 3B            [24]  181 	mov	(_LCD_Data_io + 0x0001),r5
                                    182 ;	../HAL/LCD16X2.c:15: GPIO_Write(&LCD_Data_io, GPIO_LOW);
      000A75 75 4C 00         [24]  183 	mov	_GPIO_Write_PARM_2,#0x00
      000A78 90 00 3A         [24]  184 	mov	dptr,#_LCD_Data_io
      000A7B 75 F0 40         [24]  185 	mov	b,#0x40
      000A7E 12 05 A1         [24]  186 	lcall	_GPIO_Write
                                    187 ;	../HAL/LCD16X2.c:17: LCD_Data_io.Port = config->Data_Port;
      000A81 85 3E 82         [24]  188 	mov	dpl,_Send_Command_config_65536_11
      000A84 85 3F 83         [24]  189 	mov	dph,(_Send_Command_config_65536_11 + 1)
      000A87 85 40 F0         [24]  190 	mov	b,(_Send_Command_config_65536_11 + 2)
      000A8A 12 0D 36         [24]  191 	lcall	__gptrget
      000A8D FF               [12]  192 	mov	r7,a
      000A8E 8F 3A            [24]  193 	mov	_LCD_Data_io,r7
                                    194 ;	../HAL/LCD16X2.c:18: GPIO_PORT_Write(&LCD_Data_io, command);
      000A90 85 3D 4C         [24]  195 	mov	_GPIO_PORT_Write_PARM_2,_Send_Command_PARM_2
      000A93 90 00 3A         [24]  196 	mov	dptr,#_LCD_Data_io
      000A96 75 F0 40         [24]  197 	mov	b,#0x40
      000A99 12 09 BF         [24]  198 	lcall	_GPIO_PORT_Write
      000A9C D0 02            [24]  199 	pop	ar2
      000A9E D0 03            [24]  200 	pop	ar3
      000AA0 D0 04            [24]  201 	pop	ar4
                                    202 ;	../HAL/LCD16X2.c:21: LCD_Data_io.Pin = config->EN; 
      000AA2 74 04            [12]  203 	mov	a,#0x04
      000AA4 25 3E            [12]  204 	add	a,_Send_Command_config_65536_11
      000AA6 FD               [12]  205 	mov	r5,a
      000AA7 E4               [12]  206 	clr	a
      000AA8 35 3F            [12]  207 	addc	a,(_Send_Command_config_65536_11 + 1)
      000AAA FE               [12]  208 	mov	r6,a
      000AAB AF 40            [24]  209 	mov	r7,(_Send_Command_config_65536_11 + 2)
      000AAD 8D 82            [24]  210 	mov	dpl,r5
      000AAF 8E 83            [24]  211 	mov	dph,r6
      000AB1 8F F0            [24]  212 	mov	b,r7
      000AB3 12 0D 36         [24]  213 	lcall	__gptrget
      000AB6 FD               [12]  214 	mov	r5,a
      000AB7 8D 3B            [24]  215 	mov	(_LCD_Data_io + 0x0001),r5
                                    216 ;	../HAL/LCD16X2.c:22: LCD_Data_io.Port = config->Command_Port;
      000AB9 8A 82            [24]  217 	mov	dpl,r2
      000ABB 8B 83            [24]  218 	mov	dph,r3
      000ABD 8C F0            [24]  219 	mov	b,r4
      000ABF 12 0D 36         [24]  220 	lcall	__gptrget
      000AC2 FA               [12]  221 	mov	r2,a
      000AC3 8A 3A            [24]  222 	mov	_LCD_Data_io,r2
                                    223 ;	../HAL/LCD16X2.c:24: GPIO_Write(&LCD_Data_io, GPIO_HIGH);
      000AC5 75 4C 01         [24]  224 	mov	_GPIO_Write_PARM_2,#0x01
      000AC8 90 00 3A         [24]  225 	mov	dptr,#_LCD_Data_io
      000ACB 75 F0 40         [24]  226 	mov	b,#0x40
      000ACE 12 05 A1         [24]  227 	lcall	_GPIO_Write
                                    228 ;	../HAL/LCD16X2.c:25: delay_ms(1);
      000AD1 90 00 01         [24]  229 	mov	dptr,#0x0001
      000AD4 12 05 45         [24]  230 	lcall	_delay_ms
                                    231 ;	../HAL/LCD16X2.c:26: GPIO_Write(&LCD_Data_io, GPIO_LOW);
      000AD7 75 4C 00         [24]  232 	mov	_GPIO_Write_PARM_2,#0x00
      000ADA 90 00 3A         [24]  233 	mov	dptr,#_LCD_Data_io
      000ADD 75 F0 40         [24]  234 	mov	b,#0x40
                                    235 ;	../HAL/LCD16X2.c:27: }
      000AE0 02 05 A1         [24]  236 	ljmp	_GPIO_Write
                                    237 ;------------------------------------------------------------
                                    238 ;Allocation info for local variables in function 'Send_Data'
                                    239 ;------------------------------------------------------------
                                    240 ;command                   Allocated with name '_Send_Data_PARM_2'
                                    241 ;config                    Allocated with name '_Send_Data_config_65536_13'
                                    242 ;------------------------------------------------------------
                                    243 ;	../HAL/LCD16X2.c:29: void Send_Data(LCD_Config_t *config, unsigned char command){
                                    244 ;	-----------------------------------------
                                    245 ;	 function Send_Data
                                    246 ;	-----------------------------------------
      000AE3                        247 _Send_Data:
      000AE3 85 82 42         [24]  248 	mov	_Send_Data_config_65536_13,dpl
      000AE6 85 83 43         [24]  249 	mov	(_Send_Data_config_65536_13 + 1),dph
      000AE9 85 F0 44         [24]  250 	mov	(_Send_Data_config_65536_13 + 2),b
                                    251 ;	../HAL/LCD16X2.c:30: LCD_Data_io.Port = config->Command_Port;
      000AEC 74 01            [12]  252 	mov	a,#0x01
      000AEE 25 42            [12]  253 	add	a,_Send_Data_config_65536_13
      000AF0 FA               [12]  254 	mov	r2,a
      000AF1 E4               [12]  255 	clr	a
      000AF2 35 43            [12]  256 	addc	a,(_Send_Data_config_65536_13 + 1)
      000AF4 FB               [12]  257 	mov	r3,a
      000AF5 AC 44            [24]  258 	mov	r4,(_Send_Data_config_65536_13 + 2)
      000AF7 8A 82            [24]  259 	mov	dpl,r2
      000AF9 8B 83            [24]  260 	mov	dph,r3
      000AFB 8C F0            [24]  261 	mov	b,r4
      000AFD 12 0D 36         [24]  262 	lcall	__gptrget
      000B00 FF               [12]  263 	mov	r7,a
      000B01 8F 3A            [24]  264 	mov	_LCD_Data_io,r7
                                    265 ;	../HAL/LCD16X2.c:31: LCD_Data_io.Pin = config->RS; 
      000B03 74 03            [12]  266 	mov	a,#0x03
      000B05 25 42            [12]  267 	add	a,_Send_Data_config_65536_13
      000B07 FD               [12]  268 	mov	r5,a
      000B08 E4               [12]  269 	clr	a
      000B09 35 43            [12]  270 	addc	a,(_Send_Data_config_65536_13 + 1)
      000B0B FE               [12]  271 	mov	r6,a
      000B0C AF 44            [24]  272 	mov	r7,(_Send_Data_config_65536_13 + 2)
      000B0E 8D 82            [24]  273 	mov	dpl,r5
      000B10 8E 83            [24]  274 	mov	dph,r6
      000B12 8F F0            [24]  275 	mov	b,r7
      000B14 12 0D 36         [24]  276 	lcall	__gptrget
      000B17 FD               [12]  277 	mov	r5,a
      000B18 8D 3B            [24]  278 	mov	(_LCD_Data_io + 0x0001),r5
                                    279 ;	../HAL/LCD16X2.c:32: GPIO_Write(&LCD_Data_io, GPIO_HIGH);
      000B1A 75 4C 01         [24]  280 	mov	_GPIO_Write_PARM_2,#0x01
      000B1D 90 00 3A         [24]  281 	mov	dptr,#_LCD_Data_io
      000B20 75 F0 40         [24]  282 	mov	b,#0x40
      000B23 C0 04            [24]  283 	push	ar4
      000B25 C0 03            [24]  284 	push	ar3
      000B27 C0 02            [24]  285 	push	ar2
      000B29 12 05 A1         [24]  286 	lcall	_GPIO_Write
                                    287 ;	../HAL/LCD16X2.c:33: LCD_Data_io.Pin = config->RW; 
      000B2C 74 02            [12]  288 	mov	a,#0x02
      000B2E 25 42            [12]  289 	add	a,_Send_Data_config_65536_13
      000B30 FD               [12]  290 	mov	r5,a
      000B31 E4               [12]  291 	clr	a
      000B32 35 43            [12]  292 	addc	a,(_Send_Data_config_65536_13 + 1)
      000B34 FE               [12]  293 	mov	r6,a
      000B35 AF 44            [24]  294 	mov	r7,(_Send_Data_config_65536_13 + 2)
      000B37 8D 82            [24]  295 	mov	dpl,r5
      000B39 8E 83            [24]  296 	mov	dph,r6
      000B3B 8F F0            [24]  297 	mov	b,r7
      000B3D 12 0D 36         [24]  298 	lcall	__gptrget
      000B40 FD               [12]  299 	mov	r5,a
      000B41 8D 3B            [24]  300 	mov	(_LCD_Data_io + 0x0001),r5
                                    301 ;	../HAL/LCD16X2.c:34: GPIO_Write(&LCD_Data_io, GPIO_LOW);
      000B43 75 4C 00         [24]  302 	mov	_GPIO_Write_PARM_2,#0x00
      000B46 90 00 3A         [24]  303 	mov	dptr,#_LCD_Data_io
      000B49 75 F0 40         [24]  304 	mov	b,#0x40
      000B4C 12 05 A1         [24]  305 	lcall	_GPIO_Write
                                    306 ;	../HAL/LCD16X2.c:36: LCD_Data_io.Port = config->Data_Port;
      000B4F 85 42 82         [24]  307 	mov	dpl,_Send_Data_config_65536_13
      000B52 85 43 83         [24]  308 	mov	dph,(_Send_Data_config_65536_13 + 1)
      000B55 85 44 F0         [24]  309 	mov	b,(_Send_Data_config_65536_13 + 2)
      000B58 12 0D 36         [24]  310 	lcall	__gptrget
      000B5B FF               [12]  311 	mov	r7,a
      000B5C 8F 3A            [24]  312 	mov	_LCD_Data_io,r7
                                    313 ;	../HAL/LCD16X2.c:37: GPIO_PORT_Write(&LCD_Data_io, command);
      000B5E 85 41 4C         [24]  314 	mov	_GPIO_PORT_Write_PARM_2,_Send_Data_PARM_2
      000B61 90 00 3A         [24]  315 	mov	dptr,#_LCD_Data_io
      000B64 75 F0 40         [24]  316 	mov	b,#0x40
      000B67 12 09 BF         [24]  317 	lcall	_GPIO_PORT_Write
      000B6A D0 02            [24]  318 	pop	ar2
      000B6C D0 03            [24]  319 	pop	ar3
      000B6E D0 04            [24]  320 	pop	ar4
                                    321 ;	../HAL/LCD16X2.c:40: LCD_Data_io.Pin = config->EN; 
      000B70 74 04            [12]  322 	mov	a,#0x04
      000B72 25 42            [12]  323 	add	a,_Send_Data_config_65536_13
      000B74 FD               [12]  324 	mov	r5,a
      000B75 E4               [12]  325 	clr	a
      000B76 35 43            [12]  326 	addc	a,(_Send_Data_config_65536_13 + 1)
      000B78 FE               [12]  327 	mov	r6,a
      000B79 AF 44            [24]  328 	mov	r7,(_Send_Data_config_65536_13 + 2)
      000B7B 8D 82            [24]  329 	mov	dpl,r5
      000B7D 8E 83            [24]  330 	mov	dph,r6
      000B7F 8F F0            [24]  331 	mov	b,r7
      000B81 12 0D 36         [24]  332 	lcall	__gptrget
      000B84 FD               [12]  333 	mov	r5,a
      000B85 8D 3B            [24]  334 	mov	(_LCD_Data_io + 0x0001),r5
                                    335 ;	../HAL/LCD16X2.c:41: LCD_Data_io.Port = config->Command_Port;
      000B87 8A 82            [24]  336 	mov	dpl,r2
      000B89 8B 83            [24]  337 	mov	dph,r3
      000B8B 8C F0            [24]  338 	mov	b,r4
      000B8D 12 0D 36         [24]  339 	lcall	__gptrget
      000B90 FA               [12]  340 	mov	r2,a
      000B91 8A 3A            [24]  341 	mov	_LCD_Data_io,r2
                                    342 ;	../HAL/LCD16X2.c:43: GPIO_Write(&LCD_Data_io, GPIO_HIGH);
      000B93 75 4C 01         [24]  343 	mov	_GPIO_Write_PARM_2,#0x01
      000B96 90 00 3A         [24]  344 	mov	dptr,#_LCD_Data_io
      000B99 75 F0 40         [24]  345 	mov	b,#0x40
      000B9C 12 05 A1         [24]  346 	lcall	_GPIO_Write
                                    347 ;	../HAL/LCD16X2.c:44: delay_ms(1);
      000B9F 90 00 01         [24]  348 	mov	dptr,#0x0001
      000BA2 12 05 45         [24]  349 	lcall	_delay_ms
                                    350 ;	../HAL/LCD16X2.c:45: GPIO_Write(&LCD_Data_io, GPIO_LOW);
      000BA5 75 4C 00         [24]  351 	mov	_GPIO_Write_PARM_2,#0x00
      000BA8 90 00 3A         [24]  352 	mov	dptr,#_LCD_Data_io
      000BAB 75 F0 40         [24]  353 	mov	b,#0x40
                                    354 ;	../HAL/LCD16X2.c:46: }
      000BAE 02 05 A1         [24]  355 	ljmp	_GPIO_Write
                                    356 ;------------------------------------------------------------
                                    357 ;Allocation info for local variables in function 'LCD_Write_Str'
                                    358 ;------------------------------------------------------------
                                    359 ;str                       Allocated with name '_LCD_Write_Str_PARM_2'
                                    360 ;config                    Allocated to registers r5 r6 r7 
                                    361 ;------------------------------------------------------------
                                    362 ;	../HAL/LCD16X2.c:48: void LCD_Write_Str(LCD_Config_t *config, unsigned char *str){
                                    363 ;	-----------------------------------------
                                    364 ;	 function LCD_Write_Str
                                    365 ;	-----------------------------------------
      000BB1                        366 _LCD_Write_Str:
      000BB1 AD 82            [24]  367 	mov	r5,dpl
      000BB3 AE 83            [24]  368 	mov	r6,dph
      000BB5 AF F0            [24]  369 	mov	r7,b
                                    370 ;	../HAL/LCD16X2.c:49: while (*str)
      000BB7 AA 45            [24]  371 	mov	r2,_LCD_Write_Str_PARM_2
      000BB9 AB 46            [24]  372 	mov	r3,(_LCD_Write_Str_PARM_2 + 1)
      000BBB AC 47            [24]  373 	mov	r4,(_LCD_Write_Str_PARM_2 + 2)
      000BBD                        374 00101$:
      000BBD 8A 82            [24]  375 	mov	dpl,r2
      000BBF 8B 83            [24]  376 	mov	dph,r3
      000BC1 8C F0            [24]  377 	mov	b,r4
      000BC3 12 0D 36         [24]  378 	lcall	__gptrget
      000BC6 F9               [12]  379 	mov	r1,a
      000BC7 60 2A            [24]  380 	jz	00104$
                                    381 ;	../HAL/LCD16X2.c:51: Send_Data(config,*str);
      000BC9 89 41            [24]  382 	mov	_Send_Data_PARM_2,r1
      000BCB 8D 82            [24]  383 	mov	dpl,r5
      000BCD 8E 83            [24]  384 	mov	dph,r6
      000BCF 8F F0            [24]  385 	mov	b,r7
      000BD1 C0 07            [24]  386 	push	ar7
      000BD3 C0 06            [24]  387 	push	ar6
      000BD5 C0 05            [24]  388 	push	ar5
      000BD7 C0 04            [24]  389 	push	ar4
      000BD9 C0 03            [24]  390 	push	ar3
      000BDB C0 02            [24]  391 	push	ar2
      000BDD 12 0A E3         [24]  392 	lcall	_Send_Data
      000BE0 D0 02            [24]  393 	pop	ar2
      000BE2 D0 03            [24]  394 	pop	ar3
      000BE4 D0 04            [24]  395 	pop	ar4
      000BE6 D0 05            [24]  396 	pop	ar5
      000BE8 D0 06            [24]  397 	pop	ar6
      000BEA D0 07            [24]  398 	pop	ar7
                                    399 ;	../HAL/LCD16X2.c:52: str++;
      000BEC 0A               [12]  400 	inc	r2
      000BED BA 00 CD         [24]  401 	cjne	r2,#0x00,00101$
      000BF0 0B               [12]  402 	inc	r3
      000BF1 80 CA            [24]  403 	sjmp	00101$
      000BF3                        404 00104$:
                                    405 ;	../HAL/LCD16X2.c:55: }
      000BF3 22               [24]  406 	ret
                                    407 ;------------------------------------------------------------
                                    408 ;Allocation info for local variables in function 'LCD_Init'
                                    409 ;------------------------------------------------------------
                                    410 ;config                    Allocated to registers r5 r6 r7 
                                    411 ;------------------------------------------------------------
                                    412 ;	../HAL/LCD16X2.c:57: void LCD_Init(LCD_Config_t *config){
                                    413 ;	-----------------------------------------
                                    414 ;	 function LCD_Init
                                    415 ;	-----------------------------------------
      000BF4                        416 _LCD_Init:
                                    417 ;	../HAL/LCD16X2.c:58: LCD_Data_io.Port = config->Data_Port;
      000BF4 AD 82            [24]  418 	mov	r5,dpl
      000BF6 AE 83            [24]  419 	mov	r6,dph
      000BF8 AF F0            [24]  420 	mov	r7,b
      000BFA 12 0D 36         [24]  421 	lcall	__gptrget
      000BFD FC               [12]  422 	mov	r4,a
      000BFE 8C 3A            [24]  423 	mov	_LCD_Data_io,r4
                                    424 ;	../HAL/LCD16X2.c:59: LCD_Data_io.Mode = GPIO_OUTPUT;
      000C00 75 3C 00         [24]  425 	mov	(_LCD_Data_io + 0x0002),#0x00
                                    426 ;	../HAL/LCD16X2.c:61: Send_Command(config, 0x38);
      000C03 75 3D 38         [24]  427 	mov	_Send_Command_PARM_2,#0x38
      000C06 8D 82            [24]  428 	mov	dpl,r5
      000C08 8E 83            [24]  429 	mov	dph,r6
      000C0A 8F F0            [24]  430 	mov	b,r7
      000C0C C0 07            [24]  431 	push	ar7
      000C0E C0 06            [24]  432 	push	ar6
      000C10 C0 05            [24]  433 	push	ar5
      000C12 12 0A 15         [24]  434 	lcall	_Send_Command
      000C15 D0 05            [24]  435 	pop	ar5
      000C17 D0 06            [24]  436 	pop	ar6
      000C19 D0 07            [24]  437 	pop	ar7
                                    438 ;	../HAL/LCD16X2.c:62: Send_Command(config, 0x0C);
      000C1B 75 3D 0C         [24]  439 	mov	_Send_Command_PARM_2,#0x0c
      000C1E 8D 82            [24]  440 	mov	dpl,r5
      000C20 8E 83            [24]  441 	mov	dph,r6
      000C22 8F F0            [24]  442 	mov	b,r7
      000C24 C0 07            [24]  443 	push	ar7
      000C26 C0 06            [24]  444 	push	ar6
      000C28 C0 05            [24]  445 	push	ar5
      000C2A 12 0A 15         [24]  446 	lcall	_Send_Command
      000C2D D0 05            [24]  447 	pop	ar5
      000C2F D0 06            [24]  448 	pop	ar6
      000C31 D0 07            [24]  449 	pop	ar7
                                    450 ;	../HAL/LCD16X2.c:63: Send_Command(config, 0x01);
      000C33 75 3D 01         [24]  451 	mov	_Send_Command_PARM_2,#0x01
      000C36 8D 82            [24]  452 	mov	dpl,r5
      000C38 8E 83            [24]  453 	mov	dph,r6
      000C3A 8F F0            [24]  454 	mov	b,r7
      000C3C C0 07            [24]  455 	push	ar7
      000C3E C0 06            [24]  456 	push	ar6
      000C40 C0 05            [24]  457 	push	ar5
      000C42 12 0A 15         [24]  458 	lcall	_Send_Command
      000C45 D0 05            [24]  459 	pop	ar5
      000C47 D0 06            [24]  460 	pop	ar6
      000C49 D0 07            [24]  461 	pop	ar7
                                    462 ;	../HAL/LCD16X2.c:64: Send_Command(config, 0x06);
      000C4B 75 3D 06         [24]  463 	mov	_Send_Command_PARM_2,#0x06
      000C4E 8D 82            [24]  464 	mov	dpl,r5
      000C50 8E 83            [24]  465 	mov	dph,r6
      000C52 8F F0            [24]  466 	mov	b,r7
                                    467 ;	../HAL/LCD16X2.c:67: }
      000C54 02 0A 15         [24]  468 	ljmp	_Send_Command
                                    469 	.area CSEG    (CODE)
                                    470 	.area CONST   (CODE)
                                    471 	.area XINIT   (CODE)
                                    472 	.area CABS    (ABS,CODE)
